; Function Attrs: mustprogress uwtable
define void @_ZN18ExportObjectDialog14modelRowsResetEv(ptr noundef nonnull align 8 dereferenceable(328) %0) #0 align 2 personality ptr @__gxx_personality_v0 {
  %2 = alloca %class.QIcon, align 8
  %3 = alloca %class.QString, align 8
  %4 = alloca %class.QVariant, align 8
  %5 = getelementptr inbounds i8, ptr %0, i64 304
  tail call void @_ZN5QListI7QStringE5clearEv(ptr noundef nonnull align 8 dereferenceable(24) %5)
  %6 = getelementptr inbounds i8, ptr %0, i64 136
  %7 = load ptr, ptr %6, align 8
  %8 = getelementptr inbounds i8, ptr %7, i64 40
  %9 = load ptr, ptr %8, align 8
  tail call void @_ZN9QComboBox5clearEv(ptr noundef nonnull align 8 dereferenceable(40) %9)
  %10 = load ptr, ptr %6, align 8
  %11 = getelementptr inbounds i8, ptr %10, i64 40
  %12 = load ptr, ptr %11, align 8
  call void @_ZNK11QMetaObject2trEPKcS1_i(ptr dead_on_unwind nonnull writable sret(%class.QString) align 8 %3, ptr noundef nonnull align 8 dereferenceable(56) @_ZN18ExportObjectDialog16staticMetaObjectE, ptr noundef nonnull @.str.2, ptr noundef null, i32 noundef -1)
  call void @llvm.memset.p0.i64(ptr noundef nonnull align 8 dereferenceable(24) %4, i8 0, i64 24, i1 false)
  %13 = getelementptr inbounds i8, ptr %4, i64 24
  store i64 2, ptr %13, align 8
  %14 = invoke noundef i32 @_ZNK9QComboBox5countEv(ptr noundef nonnull align 8 dereferenceable(40) %12)
          to label %.noexc unwind label %25

.noexc:                                           ; preds = %1
  call void @llvm.lifetime.start.p0(i64 8, ptr nonnull %2)
  call void @_ZN5QIconC1Ev(ptr noundef nonnull align 8 dereferenceable(8) %2) #18
  invoke void @_ZN9QComboBox10insertItemEiRK5QIconRK7QStringRK8QVariant(ptr noundef nonnull align 8 dereferenceable(40) %12, i32 noundef %14, ptr noundef nonnull align 8 dereferenceable(8) %2, ptr noundef nonnull align 8 dereferenceable(24) %3, ptr noundef nonnull align 8 dereferenceable(32) %4)
          to label %17 unwind label %15

15:                                               ; preds = %.noexc
  %16 = landingpad { ptr, i32 }
          cleanup
  call void @_ZN5QIconD1Ev(ptr noundef nonnull align 8 dereferenceable(8) %2) #18
  br label %.body

17:                                               ; preds = %.noexc
  call void @_ZN5QIconD1Ev(ptr noundef nonnull align 8 dereferenceable(8) %2) #18
  call void @llvm.lifetime.end.p0(i64 8, ptr nonnull %2)
  call void @_ZN8QVariantD1Ev(ptr noundef nonnull align 8 dereferenceable(32) %4) #18
  %18 = load ptr, ptr %3, align 8
  %.not.i.i.i = icmp eq ptr %18, null
  br i1 %.not.i.i.i, label %_ZN7QStringD2Ev.exit, label %_ZN17QArrayDataPointerIDsE5derefEv.exit.i.i

_ZN17QArrayDataPointerIDsE5derefEv.exit.i.i:      ; preds = %17
  %19 = atomicrmw sub ptr %18, i32 1 seq_cst, align 4
  %.not.i.i = icmp eq i32 %19, 1
  br i1 %.not.i.i, label %20, label %_ZN7QStringD2Ev.exit

20:                                               ; preds = %_ZN17QArrayDataPointerIDsE5derefEv.exit.i.i
  %21 = load ptr, ptr %3, align 8
  call void @_ZN10QArrayData10deallocateEPS_xx(ptr noundef %21, i64 noundef 2, i64 noundef 8) #18
  br label %_ZN7QStringD2Ev.exit

_ZN7QStringD2Ev.exit:                             ; preds = %17, %_ZN17QArrayDataPointerIDsE5derefEv.exit.i.i, %20
  %22 = getelementptr inbounds i8, ptr %0, i64 144
  %23 = load ptr, ptr %22, align 8
  %.not = icmp eq ptr %23, null
  br i1 %.not, label %31, label %24

24:                                               ; preds = %_ZN7QStringD2Ev.exit
  call void @_ZN7QWidget10setEnabledEb(ptr noundef nonnull align 8 dereferenceable(40) %23, i1 noundef zeroext false)
  br label %31

25:                                               ; preds = %1
  %26 = landingpad { ptr, i32 }
          cleanup
  br label %.body

.body:                                            ; preds = %15, %25
  %eh.lpad-body = phi { ptr, i32 } [ %26, %25 ], [ %16, %15 ]
  call void @_ZN8QVariantD1Ev(ptr noundef nonnull align 8 dereferenceable(32) %4) #18
  %27 = load ptr, ptr %3, align 8
  %.not.i.i.i4 = icmp eq ptr %27, null
  br i1 %.not.i.i.i4, label %_ZN7QStringD2Ev.exit7, label %_ZN17QArrayDataPointerIDsE5derefEv.exit.i.i5

_ZN17QArrayDataPointerIDsE5derefEv.exit.i.i5:     ; preds = %.body
  %28 = atomicrmw sub ptr %27, i32 1 seq_cst, align 4
  %.not.i.i6 = icmp eq i32 %28, 1
  br i1 %.not.i.i6, label %29, label %_ZN7QStringD2Ev.exit7

29:                                               ; preds = %_ZN17QArrayDataPointerIDsE5derefEv.exit.i.i5
  %30 = load ptr, ptr %3, align 8
  call void @_ZN10QArrayData10deallocateEPS_xx(ptr noundef %30, i64 noundef 2, i64 noundef 8) #18
  br label %_ZN7QStringD2Ev.exit7

_ZN7QStringD2Ev.exit7:                            ; preds = %.body, %_ZN17QArrayDataPointerIDsE5derefEv.exit.i.i5, %29
  resume { ptr, i32 } %eh.lpad-body

31:                                               ; preds = %24, %_ZN7QStringD2Ev.exit
  %32 = getelementptr inbounds i8, ptr %0, i64 152
  %33 = load ptr, ptr %32, align 8
  %.not3 = icmp eq ptr %33, null
  br i1 %.not3, label %35, label %34

34:                                               ; preds = %31
  call void @_ZN7QWidget10setEnabledEb(ptr noundef nonnull align 8 dereferenceable(40) %33, i1 noundef zeroext false)
  br label %35

35:                                               ; preds = %34, %31
  ret void
}